; Function Attrs: nounwind uwtable
define internal range(i32 -21, 903) i32 @cvNlsConvTest(ptr noundef %0, ptr noundef %1, ptr noundef %2, double noundef %3, ptr noundef %4, ptr noundef captures(address_is_null) %5) #0 {
  %7 = alloca i32, align 4
  call void @llvm.lifetime.start.p0(i64 4, ptr nonnull %7) #3
  %8 = icmp eq ptr %5, null
  br i1 %8, label %9, label %10

9:                                                ; preds = %6
  tail call void (ptr, i32, i32, ptr, ptr, ptr, ...) @cvProcessError(ptr noundef null, i32 noundef -21, i32 noundef 320, ptr noundef nonnull @__func__.cvNlsConvTest, ptr noundef nonnull @.str, ptr noundef nonnull @.str.1) #3
  br label %45

10:                                               ; preds = %6
  %11 = tail call double @N_VWrmsNorm(ptr noundef %2, ptr noundef %4) #3
  %12 = call i32 @SUNNonlinSolGetCurIter(ptr noundef %0, ptr noundef nonnull %7) #3
  %.not = icmp eq i32 %12, 0
  br i1 %.not, label %13, label %45

13:                                               ; preds = %10
  %14 = load i32, ptr %7, align 4, !tbaa !37
  %15 = icmp sgt i32 %14, 0
  %16 = getelementptr inbounds nuw i8, ptr %5, i64 672
  %17 = load double, ptr %16, align 8, !tbaa !38
  br i1 %15, label %18, label %.thread

18:                                               ; preds = %13
  %19 = fmul double %17, 3.000000e-01
  %20 = getelementptr inbounds nuw i8, ptr %5, i64 680
  %21 = load double, ptr %20, align 8, !tbaa !39
  %22 = fdiv double %11, %21
  %23 = fcmp ogt double %19, %22
  %. = select i1 %23, double %19, double %22
  store double %., ptr %16, align 8, !tbaa !38
  %24 = fcmp ogt double %., 1.000000e+00
  %25 = select i1 %24, double 1.000000e+00, double %.
  %26 = fmul double %11, %25
  %27 = fdiv double %26, %3
  %28 = fcmp ugt double %27, 1.000000e+00
  br i1 %28, label %41, label %.thread32

.thread:                                          ; preds = %13
  %29 = fcmp ogt double %17, 1.000000e+00
  %30 = select i1 %29, double 1.000000e+00, double %17
  %31 = fmul double %11, %30
  %32 = fdiv double %31, %3
  %33 = fcmp ugt double %32, 1.000000e+00
  br i1 %33, label %.thread31, label %34

34:                                               ; preds = %.thread
  %35 = icmp eq i32 %14, 0
  br i1 %35, label %37, label %.thread32

.thread32:                                        ; preds = %18, %34
  %36 = call double @N_VWrmsNorm(ptr noundef %1, ptr noundef %4) #3
  br label %37

37:                                               ; preds = %34, %.thread32
  %38 = phi double [ %36, %.thread32 ], [ %11, %34 ]
  %39 = getelementptr inbounds nuw i8, ptr %5, i64 688
  store double %38, ptr %39, align 8, !tbaa !40
  %40 = getelementptr inbounds nuw i8, ptr %5, i64 696
  store i32 1, ptr %40, align 8, !tbaa !25
  br label %45

41:                                               ; preds = %18
  %42 = fmul double %21, 2.000000e+00
  %43 = fcmp ogt double %11, %42
  br i1 %43, label %45, label %.thread31

.thread31:                                        ; preds = %.thread, %41
  %44 = getelementptr inbounds nuw i8, ptr %5, i64 680
  store double %11, ptr %44, align 8, !tbaa !39
  br label %45

45:                                               ; preds = %41, %10, %.thread31, %37, %9
  %.0 = phi i32 [ -21, %9 ], [ 0, %37 ], [ 901, %.thread31 ], [ -21, %10 ], [ 902, %41 ]
  call void @llvm.lifetime.end.p0(i64 4, ptr nonnull %7) #3
  ret i32 %.0
}